; Function Attrs: nounwind uwtable
define i32 @Abc_AigLevel(ptr noundef %0) local_unnamed_addr #0 {
  %2 = getelementptr inbounds nuw i8, ptr %0, i64 148
  %3 = load i32, ptr %2, align 4
  %.not = icmp eq i32 %3, 0
  br i1 %.not, label %.preheader, label %8

.preheader:                                       ; preds = %1
  %4 = getelementptr i8, ptr %0, i64 64
  %.val16 = load ptr, ptr %4, align 8
  %5 = getelementptr i8, ptr %.val16, i64 4
  %.val16.val = load i32, ptr %5, align 4
  %6 = icmp sgt i32 %.val16.val, 0
  br i1 %6, label %.lr.ph, label %.critedge

.lr.ph:                                           ; preds = %.preheader
  %7 = getelementptr i8, ptr %.val16, i64 8
  %.val17.val = load ptr, ptr %7, align 8
  %wide.trip.count = zext nneg i32 %.val16.val to i64
  br label %10

8:                                                ; preds = %1
  %9 = tail call i32 @Abc_NtkLevel(ptr noundef nonnull %0) #21
  br label %.critedge

10:                                               ; preds = %.lr.ph, %10
  %indvars.iv = phi i64 [ 0, %.lr.ph ], [ %indvars.iv.next, %10 ]
  %.019 = phi i32 [ 0, %.lr.ph ], [ %spec.select, %10 ]
  %11 = getelementptr inbounds nuw ptr, ptr %.val17.val, i64 %indvars.iv
  %12 = load ptr, ptr %11, align 8
  %.val14 = load ptr, ptr %12, align 8
  %13 = getelementptr i8, ptr %12, i64 32
  %.val15 = load ptr, ptr %13, align 8
  %14 = getelementptr i8, ptr %.val14, i64 32
  %.val14.val = load ptr, ptr %14, align 8
  %.val15.val = load i32, ptr %.val15, align 4
  %15 = getelementptr i8, ptr %.val14.val, i64 8
  %.val14.val.val = load ptr, ptr %15, align 8
  %16 = sext i32 %.val15.val to i64
  %17 = getelementptr inbounds ptr, ptr %.val14.val.val, i64 %16
  %18 = load ptr, ptr %17, align 8
  %19 = getelementptr inbounds nuw i8, ptr %18, i64 20
  %20 = load i32, ptr %19, align 4
  %21 = lshr i32 %20, 12
  %spec.select = tail call i32 @llvm.umax.i32(i32 %.019, i32 %21)
  %indvars.iv.next = add nuw nsw i64 %indvars.iv, 1
  %exitcond.not = icmp eq i64 %indvars.iv.next, %wide.trip.count
  br i1 %exitcond.not, label %.critedge, label %10, !llvm.loop !23

.critedge:                                        ; preds = %10, %.preheader, %8
  %.012 = phi i32 [ %9, %8 ], [ 0, %.preheader ], [ %spec.select, %10 ]
  ret i32 %.012
}